; ModuleID = 'source-C-CXX/22/61.c'
source_filename = "source-C-CXX/22/61.c"
target datalayout = "e-m:e-p270:32:32-p271:32:32-p272:64:64-i64:64-f80:128-n8:16:32:64-S128"
target triple = "x86_64-pc-linux-gnu"

%struct._IO_FILE = type { i32, i8*, i8*, i8*, i8*, i8*, i8*, i8*, i8*, i8*, i8*, i8*, %struct._IO_marker*, %struct._IO_FILE*, i32, i32, i64, i16, i8, [1 x i8], i8*, i64, %struct._IO_codecvt*, %struct._IO_wide_data*, %struct._IO_FILE*, i8*, i64, i32, [20 x i8] }
%struct._IO_marker = type opaque
%struct._IO_codecvt = type opaque
%struct._IO_wide_data = type opaque

@.str = private unnamed_addr constant [3 x i8] c"%s\00", align 1
@.str.1 = private unnamed_addr constant [4 x i8] c"%s \00", align 1
@stdin = external local_unnamed_addr global %struct._IO_FILE*, align 8

; Function Attrs: nofree nounwind sspstrong uwtable
define dso_local void @main() local_unnamed_addr #0 {
  %1 = alloca [10 x [10 x i8]], align 16
  %2 = getelementptr inbounds [10 x [10 x i8]], [10 x [10 x i8]]* %1, i64 0, i64 0, i64 0
  call void @llvm.lifetime.start.p0i8(i64 100, i8* nonnull %2) #3
  %3 = call i32 (i8*, ...) @__isoc99_scanf(i8* getelementptr inbounds ([3 x i8], [3 x i8]* @.str, i64 0, i64 0), i8* nonnull %2)
  %4 = load %struct._IO_FILE*, %struct._IO_FILE** @stdin, align 8, !tbaa !5
  %5 = call i32 @getc(%struct._IO_FILE* %4) #3
  %6 = icmp eq i32 %5, 10
  br i1 %6, label %9, label %12

7:                                                ; preds = %12
  %8 = trunc i64 %16 to i32
  br label %9

9:                                                ; preds = %7, %0
  %10 = phi i32 [ 1, %0 ], [ %8, %7 ]
  %11 = zext i32 %10 to i64
  br label %20

12:                                               ; preds = %0, %12
  %13 = phi i64 [ %16, %12 ], [ 1, %0 ]
  %14 = getelementptr inbounds [10 x [10 x i8]], [10 x [10 x i8]]* %1, i64 0, i64 %13, i64 0
  %15 = call i32 (i8*, ...) @__isoc99_scanf(i8* getelementptr inbounds ([3 x i8], [3 x i8]* @.str, i64 0, i64 0), i8* nonnull %14)
  %16 = add nuw i64 %13, 1
  %17 = load %struct._IO_FILE*, %struct._IO_FILE** @stdin, align 8, !tbaa !5
  %18 = call i32 @getc(%struct._IO_FILE* %17) #3
  %19 = icmp eq i32 %18, 10
  br i1 %19, label %7, label %12, !llvm.loop !9

20:                                               ; preds = %9, %31
  %21 = phi i64 [ %11, %9 ], [ %34, %31 ]
  %22 = phi i32 [ %10, %9 ], [ %23, %31 ]
  %23 = add nsw i32 %22, -1
  %24 = icmp eq i32 %23, 0
  br i1 %24, label %25, label %27

25:                                               ; preds = %20
  %26 = call i32 (i8*, ...) @printf(i8* nonnull dereferenceable(1) getelementptr inbounds ([3 x i8], [3 x i8]* @.str, i64 0, i64 0), i8* nonnull %2)
  br label %31

27:                                               ; preds = %20
  %28 = zext i32 %23 to i64
  %29 = getelementptr inbounds [10 x [10 x i8]], [10 x [10 x i8]]* %1, i64 0, i64 %28, i64 0
  %30 = call i32 (i8*, ...) @printf(i8* nonnull dereferenceable(1) getelementptr inbounds ([4 x i8], [4 x i8]* @.str.1, i64 0, i64 0), i8* nonnull %29)
  br label %31

31:                                               ; preds = %25, %27
  %32 = trunc i64 %21 to i32
  %33 = icmp sgt i32 %32, 1
  %34 = add nsw i64 %21, -1
  br i1 %33, label %20, label %35, !llvm.loop !11

35:                                               ; preds = %31
  call void @llvm.lifetime.end.p0i8(i64 100, i8* nonnull %2) #3
  ret void
}

; Function Attrs: argmemonly mustprogress nofree nosync nounwind willreturn
declare void @llvm.lifetime.start.p0i8(i64 immarg, i8* nocapture) #1

; Function Attrs: nofree nounwind
declare noundef i32 @__isoc99_scanf(i8* nocapture noundef readonly, ...) local_unnamed_addr #2

; Function Attrs: nofree nounwind
declare noundef i32 @printf(i8* nocapture noundef readonly, ...) local_unnamed_addr #2

; Function Attrs: argmemonly mustprogress nofree nosync nounwind willreturn
declare void @llvm.lifetime.end.p0i8(i64 immarg, i8* nocapture) #1

; Function Attrs: nofree nounwind
declare noundef i32 @getc(%struct._IO_FILE* nocapture noundef) local_unnamed_addr #2


!llvm.module.flags = !{!0, !1, !2, !3}
!llvm.ident = !{!4}

!0 = !{i32 1, !"wchar_size", i32 4}
!1 = !{i32 7, !"PIC Level", i32 2}
!2 = !{i32 7, !"PIE Level", i32 2}
!3 = !{i32 7, !"uwtable", i32 1}
!4 = !{!"clang version 13.0.0"}
!5 = !{!6, !6, i64 0}
!6 = !{!"any pointer", !7, i64 0}
!7 = !{!"omnipotent char", !8, i64 0}
!8 = !{!"Simple C/C++ TBAA"}
!9 = distinct !{!9, !10}
!10 = !{!"llvm.loop.mustprogress"}
!11 = distinct !{!11, !10}
